; Function Attrs: mustprogress uwtable
define internal void @"_ZNSt17_Function_handlerIFvvEZN3gmx10EnergyData7Element12scheduleTaskEldRKSt8functionIFvS4_IS0_EEEE3$_0E9_M_invokeERKSt9_Any_data"(ptr noundef nonnull readonly align 8 captures(none) dereferenceable(16) %0) #0 align 2 {
  %.val = load ptr, ptr %0, align 8, !tbaa !33
  %2 = load ptr, ptr %.val, align 8, !tbaa !177
  %3 = getelementptr inbounds nuw i8, ptr %2, i64 40
  %4 = load ptr, ptr %3, align 8, !tbaa !62
  %5 = getelementptr inbounds nuw i8, ptr %.val, i64 8
  %6 = load i64, ptr %5, align 8, !tbaa !179
  %7 = getelementptr inbounds nuw i8, ptr %.val, i64 16
  %8 = load double, ptr %7, align 8, !tbaa !180
  %9 = getelementptr inbounds nuw i8, ptr %.val, i64 24
  %10 = load i8, ptr %9, align 8, !tbaa !181, !range !21, !noundef !22
  %11 = trunc nuw i8 %10 to i1
  %12 = getelementptr inbounds nuw i8, ptr %.val, i64 25
  %13 = load i8, ptr %12, align 1, !tbaa !182, !range !21, !noundef !22
  %14 = trunc nuw i8 %13 to i1
  tail call void @_ZN3gmx10EnergyData6doStepEldbb(ptr noundef nonnull align 8 dereferenceable(552) %4, i64 noundef %6, double noundef %8, i1 noundef zeroext %11, i1 noundef zeroext %14)
  ret void
}